; Function Attrs: mustprogress nounwind uwtable
define dso_local noundef zeroext i1 @_ZN4node12SnapshotData8FromFileEPS0_P8_IO_FILE(ptr noundef %out, ptr noundef %in) local_unnamed_addr #3 align 2 {
entry:
  %ref.tmp = alloca %"class.std::vector.28", align 8
  call void @_ZN4node12ReadFileSyncEP8_IO_FILE(ptr nonnull sret(%"class.std::vector.28") align 8 %ref.tmp, ptr noundef %in) #23
  %0 = load ptr, ptr %ref.tmp, align 8
  %_M_finish.i.i = getelementptr inbounds i8, ptr %ref.tmp, i64 8
  %1 = load ptr, ptr %_M_finish.i.i, align 8
  %sub.ptr.lhs.cast.i.i = ptrtoint ptr %1 to i64
  %sub.ptr.rhs.cast.i.i = ptrtoint ptr %0 to i64
  %sub.ptr.sub.i.i = sub i64 %sub.ptr.lhs.cast.i.i, %sub.ptr.rhs.cast.i.i
  %call2.i = call noundef zeroext i1 @_ZN4node12SnapshotData8FromBlobEPS0_St17basic_string_viewIcSt11char_traitsIcEE(ptr noundef %out, i64 %sub.ptr.sub.i.i, ptr %0)
  %2 = load ptr, ptr %ref.tmp, align 8
  %tobool.not.i.i.i = icmp eq ptr %2, null
  br i1 %tobool.not.i.i.i, label %_ZNSt6vectorIcSaIcEED2Ev.exit, label %if.then.i.i.i

if.then.i.i.i:                                    ; preds = %entry
  call void @_ZdlPv(ptr noundef nonnull %2) #27
  br label %_ZNSt6vectorIcSaIcEED2Ev.exit

_ZNSt6vectorIcSaIcEED2Ev.exit:                    ; preds = %entry, %if.then.i.i.i
  call void @_ZNSaIcED2Ev(ptr noundef nonnull align 1 dereferenceable(1) %ref.tmp) #23
  ret i1 %call2.i
}